; Function Attrs: mustprogress nounwind uwtable
define dso_local noundef zeroext i1 @_ZN4node12SnapshotData8FromBlobEPS0_RKSt6vectorIcSaIcEE(ptr noundef %out, ptr nocapture noundef nonnull readonly align 8 dereferenceable(24) %in) local_unnamed_addr #3 align 2 {
entry:
  %0 = load ptr, ptr %in, align 8
  %_M_finish.i = getelementptr inbounds i8, ptr %in, i64 8
  %1 = load ptr, ptr %_M_finish.i, align 8
  %sub.ptr.lhs.cast.i = ptrtoint ptr %1 to i64
  %sub.ptr.rhs.cast.i = ptrtoint ptr %0 to i64
  %sub.ptr.sub.i = sub i64 %sub.ptr.lhs.cast.i, %sub.ptr.rhs.cast.i
  %call2 = tail call noundef zeroext i1 @_ZN4node12SnapshotData8FromBlobEPS0_St17basic_string_viewIcSt11char_traitsIcEE(ptr noundef %out, i64 %sub.ptr.sub.i, ptr %0)
  ret i1 %call2
}